target datalayout = "e-m:e-p270:32:32-p271:32:32-p272:64:64-i64:64-i128:128-f80:128-n8:16:32:64-S128"
target triple = "x86_64-pc-linux-gnu"

%struct.ossl_property_definition_st = type { i32, i32, i32, i8, %union.anon }
%union.anon = type { i64 }

@.str = private unnamed_addr constant [44 x i8] c"../openssl/crypto/property/property_parse.c\00", align 1
@.str.2 = private unnamed_addr constant [10 x i8] c"HERE-->%s\00", align 1
@__func__.parse_number = private unnamed_addr constant [13 x i8] c"parse_number\00", align 1
@.str.13 = private unnamed_addr constant [22 x i8] c"Property %s overflows\00", align 1

; Function Attrs: nounwind uwtable
define internal ptr @skip_space(ptr noundef %0) #0 {
  %2 = alloca ptr, align 8
  store ptr %0, ptr %2, align 8, !tbaa !8
  br label %3

3:                                                ; preds = %9, %1
  %4 = load ptr, ptr %2, align 8, !tbaa !8
  %5 = load i8, ptr %4, align 1, !tbaa !16
  %6 = sext i8 %5 to i32
  %7 = call i32 @ossl_ctype_check(i32 noundef %6, i32 noundef 8)
  %8 = icmp ne i32 %7, 0
  br i1 %8, label %9, label %12

9:                                                ; preds = %3
  %10 = load ptr, ptr %2, align 8, !tbaa !8
  %11 = getelementptr inbounds nuw i8, ptr %10, i32 1
  store ptr %11, ptr %2, align 8, !tbaa !8
  br label %3, !llvm.loop !28

12:                                               ; preds = %3
  %13 = load ptr, ptr %2, align 8, !tbaa !8
  ret ptr %13
}

; Function Attrs: nounwind uwtable
define internal i32 @parse_number(ptr noundef %0, ptr noundef %1) #0 {
  %3 = alloca i32, align 4
  %4 = alloca ptr, align 8
  %5 = alloca ptr, align 8
  %6 = alloca ptr, align 8
  %7 = alloca i64, align 8
  %8 = alloca i32, align 4
  store ptr %0, ptr %4, align 8, !tbaa !29
  store ptr %1, ptr %5, align 8, !tbaa !10
  call void @llvm.lifetime.start.p0(i64 8, ptr %6) #7
  %9 = load ptr, ptr %4, align 8, !tbaa !29
  %10 = load ptr, ptr %9, align 8, !tbaa !8
  store ptr %10, ptr %6, align 8, !tbaa !8
  call void @llvm.lifetime.start.p0(i64 8, ptr %7) #7
  store i64 0, ptr %7, align 8, !tbaa !33
  br label %11

11:                                               ; preds = %43, %2
  %12 = load ptr, ptr %6, align 8, !tbaa !8
  %13 = load i8, ptr %12, align 1, !tbaa !16
  %14 = sext i8 %13 to i32
  %15 = call i32 @ossl_isdigit(i32 noundef %14)
  %16 = icmp ne i32 %15, 0
  br i1 %16, label %20, label %17

17:                                               ; preds = %11
  call void @ERR_new()
  call void @ERR_set_debug(ptr noundef @.str, i32 noundef 103, ptr noundef @__func__.parse_number)
  %18 = load ptr, ptr %4, align 8, !tbaa !29
  %19 = load ptr, ptr %18, align 8, !tbaa !8
  call void (i32, i32, ptr, ...) @ERR_set_error(i32 noundef 55, i32 noundef 105, ptr noundef @.str.2, ptr noundef %19)
  store i32 0, ptr %3, align 4
  store i32 1, ptr %8, align 4
  br label %77

20:                                               ; preds = %11
  %21 = load i64, ptr %7, align 8, !tbaa !33
  %22 = load ptr, ptr %6, align 8, !tbaa !8
  %23 = load i8, ptr %22, align 1, !tbaa !16
  %24 = sext i8 %23 to i32
  %25 = sub nsw i32 %24, 48
  %26 = sext i32 %25 to i64
  %27 = sub nsw i64 9223372036854775807, %26
  %28 = sdiv i64 %27, 10
  %29 = icmp sgt i64 %21, %28
  br i1 %29, label %30, label %33

30:                                               ; preds = %20
  call void @ERR_new()
  call void @ERR_set_debug(ptr noundef @.str, i32 noundef 109, ptr noundef @__func__.parse_number)
  %31 = load ptr, ptr %4, align 8, !tbaa !29
  %32 = load ptr, ptr %31, align 8, !tbaa !8
  call void (i32, i32, ptr, ...) @ERR_set_error(i32 noundef 55, i32 noundef 108, ptr noundef @.str.13, ptr noundef %32)
  store i32 0, ptr %3, align 4
  store i32 1, ptr %8, align 4
  br label %77

33:                                               ; preds = %20
  %34 = load i64, ptr %7, align 8, !tbaa !33
  %35 = mul nsw i64 %34, 10
  %36 = load ptr, ptr %6, align 8, !tbaa !8
  %37 = getelementptr inbounds nuw i8, ptr %36, i32 1
  store ptr %37, ptr %6, align 8, !tbaa !8
  %38 = load i8, ptr %36, align 1, !tbaa !16
  %39 = sext i8 %38 to i32
  %40 = sub nsw i32 %39, 48
  %41 = sext i32 %40 to i64
  %42 = add nsw i64 %35, %41
  store i64 %42, ptr %7, align 8, !tbaa !33
  br label %43

43:                                               ; preds = %33
  %44 = load ptr, ptr %6, align 8, !tbaa !8
  %45 = load i8, ptr %44, align 1, !tbaa !16
  %46 = sext i8 %45 to i32
  %47 = call i32 @ossl_isdigit(i32 noundef %46)
  %48 = icmp ne i32 %47, 0
  br i1 %48, label %11, label %49, !llvm.loop !50

49:                                               ; preds = %43
  %50 = load ptr, ptr %6, align 8, !tbaa !8
  %51 = load i8, ptr %50, align 1, !tbaa !16
  %52 = sext i8 %51 to i32
  %53 = call i32 @ossl_ctype_check(i32 noundef %52, i32 noundef 8)
  %54 = icmp ne i32 %53, 0
  br i1 %54, label %68, label %55

55:                                               ; preds = %49
  %56 = load ptr, ptr %6, align 8, !tbaa !8
  %57 = load i8, ptr %56, align 1, !tbaa !16
  %58 = sext i8 %57 to i32
  %59 = icmp ne i32 %58, 0
  br i1 %59, label %60, label %68

60:                                               ; preds = %55
  %61 = load ptr, ptr %6, align 8, !tbaa !8
  %62 = load i8, ptr %61, align 1, !tbaa !16
  %63 = sext i8 %62 to i32
  %64 = icmp ne i32 %63, 44
  br i1 %64, label %65, label %68

65:                                               ; preds = %60
  call void @ERR_new()
  call void @ERR_set_debug(ptr noundef @.str, i32 noundef 116, ptr noundef @__func__.parse_number)
  %66 = load ptr, ptr %4, align 8, !tbaa !29
  %67 = load ptr, ptr %66, align 8, !tbaa !8
  call void (i32, i32, ptr, ...) @ERR_set_error(i32 noundef 55, i32 noundef 105, ptr noundef @.str.2, ptr noundef %67)
  store i32 0, ptr %3, align 4
  store i32 1, ptr %8, align 4
  br label %77

68:                                               ; preds = %60, %55, %49
  %69 = load ptr, ptr %6, align 8, !tbaa !8
  %70 = call ptr @skip_space(ptr noundef %69)
  %71 = load ptr, ptr %4, align 8, !tbaa !29
  store ptr %70, ptr %71, align 8, !tbaa !8
  %72 = load ptr, ptr %5, align 8, !tbaa !10
  %73 = getelementptr inbounds nuw %struct.ossl_property_definition_st, ptr %72, i32 0, i32 1
  store i32 1, ptr %73, align 4, !tbaa !22
  %74 = load i64, ptr %7, align 8, !tbaa !33
  %75 = load ptr, ptr %5, align 8, !tbaa !10
  %76 = getelementptr inbounds nuw %struct.ossl_property_definition_st, ptr %75, i32 0, i32 4
  store i64 %74, ptr %76, align 8, !tbaa !16
  store i32 1, ptr %3, align 4
  store i32 1, ptr %8, align 4
  br label %77

77:                                               ; preds = %68, %65, %30, %17
  call void @llvm.lifetime.end.p0(i64 8, ptr %7) #7
  call void @llvm.lifetime.end.p0(i64 8, ptr %6) #7
  %78 = load i32, ptr %3, align 4
  ret i32 %78
}