; Function Attrs: nounwind uwtable
define internal fastcc range(i32 0, 2) i32 @parse_number(ptr noundef nonnull captures(none) %0, ptr noundef nonnull writeonly captures(none) %1) unnamed_addr #0 {
  %3 = load ptr, ptr %0, align 8, !tbaa !8
  br label %4

4:                                                ; preds = %18, %2
  %.018 = phi ptr [ %3, %2 ], [ %20, %18 ]
  %.0 = phi i64 [ 0, %2 ], [ %22, %18 ]
  %5 = load i8, ptr %.018, align 1, !tbaa !3
  %6 = sext i8 %5 to i32
  %7 = tail call i32 @ossl_isdigit(i32 noundef %6) #9
  %.not = icmp eq i32 %7, 0
  br i1 %.not, label %8, label %10

8:                                                ; preds = %4
  tail call void @ERR_new() #9
  tail call void @ERR_set_debug(ptr noundef nonnull @.str, i32 noundef 103, ptr noundef nonnull @__func__.parse_number) #9
  %9 = load ptr, ptr %0, align 8, !tbaa !8
  tail call void (i32, i32, ptr, ...) @ERR_set_error(i32 noundef 55, i32 noundef 105, ptr noundef nonnull @.str.2, ptr noundef %9) #9
  br label %41

10:                                               ; preds = %4
  %11 = load i8, ptr %.018, align 1, !tbaa !3
  %12 = sext i8 %11 to i64
  %13 = sub i64 -9223372036854775761, %12
  %14 = udiv i64 %13, 10
  %15 = icmp sgt i64 %.0, %14
  br i1 %15, label %16, label %18

16:                                               ; preds = %10
  tail call void @ERR_new() #9
  tail call void @ERR_set_debug(ptr noundef nonnull @.str, i32 noundef 109, ptr noundef nonnull @__func__.parse_number) #9
  %17 = load ptr, ptr %0, align 8, !tbaa !8
  tail call void (i32, i32, ptr, ...) @ERR_set_error(i32 noundef 55, i32 noundef 108, ptr noundef nonnull @.str.13, ptr noundef %17) #9
  br label %41

18:                                               ; preds = %10
  %19 = mul nsw i64 %.0, 10
  %20 = getelementptr inbounds nuw i8, ptr %.018, i64 1
  %21 = add i64 %19, -48
  %22 = add i64 %21, %12
  %23 = load i8, ptr %20, align 1, !tbaa !3
  %24 = sext i8 %23 to i32
  %25 = tail call i32 @ossl_isdigit(i32 noundef %24) #9
  %.not21 = icmp eq i32 %25, 0
  br i1 %.not21, label %26, label %4, !llvm.loop !35

26:                                               ; preds = %18
  %27 = load i8, ptr %20, align 1, !tbaa !3
  %28 = sext i8 %27 to i32
  %29 = tail call i32 @ossl_ctype_check(i32 noundef %28, i32 noundef 8) #9
  %.not22 = icmp eq i32 %29, 0
  br i1 %.not22, label %30, label %.preheader

.preheader:                                       ; preds = %30, %30, %26
  br label %34

30:                                               ; preds = %26
  %31 = load i8, ptr %20, align 1, !tbaa !3
  switch i8 %31, label %32 [
    i8 0, label %.preheader
    i8 44, label %.preheader
  ]

32:                                               ; preds = %30
  tail call void @ERR_new() #9
  tail call void @ERR_set_debug(ptr noundef nonnull @.str, i32 noundef 116, ptr noundef nonnull @__func__.parse_number) #9
  %33 = load ptr, ptr %0, align 8, !tbaa !8
  tail call void (i32, i32, ptr, ...) @ERR_set_error(i32 noundef 55, i32 noundef 105, ptr noundef nonnull @.str.2, ptr noundef %33) #9
  br label %41

34:                                               ; preds = %.preheader, %34
  %.0.i = phi ptr [ %38, %34 ], [ %20, %.preheader ]
  %35 = load i8, ptr %.0.i, align 1, !tbaa !3
  %36 = sext i8 %35 to i32
  %37 = tail call i32 @ossl_ctype_check(i32 noundef %36, i32 noundef 8) #9
  %.not.i = icmp eq i32 %37, 0
  %38 = getelementptr inbounds nuw i8, ptr %.0.i, i64 1
  br i1 %.not.i, label %skip_space.exit, label %34, !llvm.loop !6

skip_space.exit:                                  ; preds = %34
  store ptr %.0.i, ptr %0, align 8, !tbaa !8
  %39 = getelementptr inbounds nuw i8, ptr %1, i64 4
  store i32 1, ptr %39, align 4, !tbaa !15
  %40 = getelementptr inbounds nuw i8, ptr %1, i64 16
  store i64 %22, ptr %40, align 8, !tbaa !3
  br label %41

41:                                               ; preds = %skip_space.exit, %32, %16, %8
  %.019 = phi i32 [ 0, %16 ], [ 1, %skip_space.exit ], [ 0, %32 ], [ 0, %8 ]
  ret i32 %.019
}